target datalayout = "e-m:e-p270:32:32-p271:32:32-p272:64:64-i64:64-i128:128-f80:128-n8:16:32:64-S128"
target triple = "x86_64-pc-linux-gnu"

%struct.Abc_Obj_t_ = type { ptr, ptr, i32, i32, %struct.Vec_Int_t_, %struct.Vec_Int_t_, %union.anon, %union.anon.0 }
%struct.Vec_Int_t_ = type { i32, i32, ptr }
%union.anon = type { ptr }
%union.anon.0 = type { ptr }
%struct.Abc_Ntk_t_ = type { i32, i32, ptr, ptr, ptr, ptr, ptr, ptr, ptr, ptr, ptr, ptr, ptr, [11 x i32], i32, i32, i32, i32, ptr, i32, ptr, ptr, i32, i32, i32, double, i32, %struct.Vec_Int_t_, ptr, ptr, ptr, ptr, ptr, float, i32, ptr, ptr, ptr, ptr, ptr, ptr, ptr, ptr, ptr, ptr, ptr, ptr, ptr, ptr, ptr, ptr, ptr, ptr, ptr, ptr, ptr, ptr }
%struct.Vec_Ptr_t_ = type { i32, i32, ptr }

@.str = private unnamed_addr constant [4 x i8] c"_lo\00", align 1
@.str.1 = private unnamed_addr constant [4 x i8] c"_li\00", align 1

; Function Attrs: inlinehint nounwind uwtable
define internal ptr @Abc_NtkCreateBi(ptr noundef %0) #2 {
  %2 = alloca ptr, align 8
  store ptr %0, ptr %2, align 8, !tbaa !33
  %3 = load ptr, ptr %2, align 8, !tbaa !33
  %4 = call ptr @Abc_NtkCreateObj(ptr noundef %3, i32 noundef 4)
  ret ptr %4
}

; Function Attrs: inlinehint nounwind uwtable
define internal ptr @Abc_NtkCreateLatch(ptr noundef %0) #2 {
  %2 = alloca ptr, align 8
  store ptr %0, ptr %2, align 8, !tbaa !33
  %3 = load ptr, ptr %2, align 8, !tbaa !33
  %4 = call ptr @Abc_NtkCreateObj(ptr noundef %3, i32 noundef 8)
  ret ptr %4
}

; Function Attrs: inlinehint nounwind uwtable
define internal ptr @Abc_NtkCreateBo(ptr noundef %0) #2 {
  %2 = alloca ptr, align 8
  store ptr %0, ptr %2, align 8, !tbaa !33
  %3 = load ptr, ptr %2, align 8, !tbaa !33
  %4 = call ptr @Abc_NtkCreateObj(ptr noundef %3, i32 noundef 5)
  ret ptr %4
}

; Function Attrs: inlinehint nounwind uwtable
define internal void @Vec_PtrFree(ptr noundef %0) #2 {
  %2 = alloca ptr, align 8
  store ptr %0, ptr %2, align 8, !tbaa !37
  %3 = load ptr, ptr %2, align 8, !tbaa !37
  %4 = getelementptr inbounds nuw %struct.Vec_Ptr_t_, ptr %3, i32 0, i32 2
  %5 = load ptr, ptr %4, align 8, !tbaa !28
  %6 = icmp ne ptr %5, null
  br i1 %6, label %7, label %13

7:                                                ; preds = %1
  %8 = load ptr, ptr %2, align 8, !tbaa !37
  %9 = getelementptr inbounds nuw %struct.Vec_Ptr_t_, ptr %8, i32 0, i32 2
  %10 = load ptr, ptr %9, align 8, !tbaa !28
  call void @free(ptr noundef %10) #7
  %11 = load ptr, ptr %2, align 8, !tbaa !37
  %12 = getelementptr inbounds nuw %struct.Vec_Ptr_t_, ptr %11, i32 0, i32 2
  store ptr null, ptr %12, align 8, !tbaa !28
  br label %14

13:                                               ; preds = %1
  br label %14

14:                                               ; preds = %13, %7
  %15 = load ptr, ptr %2, align 8, !tbaa !37
  %16 = icmp ne ptr %15, null
  br i1 %16, label %17, label %19

17:                                               ; preds = %14
  %18 = load ptr, ptr %2, align 8, !tbaa !37
  call void @free(ptr noundef %18) #7
  store ptr null, ptr %2, align 8, !tbaa !37
  br label %20

19:                                               ; preds = %14
  br label %20

20:                                               ; preds = %19, %17
  ret void
}

; Function Attrs: inlinehint nounwind uwtable
define internal ptr @Vec_PtrEntry(ptr noundef %0, i32 noundef %1) #2 {
  %3 = alloca ptr, align 8
  %4 = alloca i32, align 4
  store ptr %0, ptr %3, align 8, !tbaa !37
  store i32 %1, ptr %4, align 4, !tbaa !31
  %5 = load ptr, ptr %3, align 8, !tbaa !37
  %6 = getelementptr inbounds nuw %struct.Vec_Ptr_t_, ptr %5, i32 0, i32 2
  %7 = load ptr, ptr %6, align 8, !tbaa !28
  %8 = load i32, ptr %4, align 4, !tbaa !31
  %9 = sext i32 %8 to i64
  %10 = getelementptr inbounds ptr, ptr %7, i64 %9
  %11 = load ptr, ptr %10, align 8, !tbaa !32
  ret ptr %11
}

; Function Attrs: inlinehint nounwind uwtable
define internal i32 @Vec_PtrSize(ptr noundef %0) #2 {
  %2 = alloca ptr, align 8
  store ptr %0, ptr %2, align 8, !tbaa !37
  %3 = load ptr, ptr %2, align 8, !tbaa !37
  %4 = getelementptr inbounds nuw %struct.Vec_Ptr_t_, ptr %3, i32 0, i32 1
  %5 = load i32, ptr %4, align 4, !tbaa !38
  ret i32 %5
}

; Function Attrs: nounwind uwtable
define ptr @Abc_NtkAddLatch(ptr noundef %0, ptr noundef %1, i32 noundef %2) #0 {
  %4 = alloca ptr, align 8
  %5 = alloca ptr, align 8
  %6 = alloca i32, align 4
  %7 = alloca ptr, align 8
  %8 = alloca ptr, align 8
  %9 = alloca ptr, align 8
  store ptr %0, ptr %4, align 8, !tbaa !33
  store ptr %1, ptr %5, align 8, !tbaa !3
  store i32 %2, ptr %6, align 4, !tbaa !31
  call void @llvm.lifetime.start.p0(i64 8, ptr %7) #7
  call void @llvm.lifetime.start.p0(i64 8, ptr %8) #7
  call void @llvm.lifetime.start.p0(i64 8, ptr %9) #7
  %10 = load ptr, ptr %4, align 8, !tbaa !33
  %11 = call ptr @Abc_NtkCreateBo(ptr noundef %10)
  store ptr %11, ptr %7, align 8, !tbaa !3
  %12 = load ptr, ptr %4, align 8, !tbaa !33
  %13 = call ptr @Abc_NtkCreateLatch(ptr noundef %12)
  store ptr %13, ptr %8, align 8, !tbaa !3
  %14 = load ptr, ptr %4, align 8, !tbaa !33
  %15 = call ptr @Abc_NtkCreateBi(ptr noundef %14)
  store ptr %15, ptr %9, align 8, !tbaa !3
  %16 = load ptr, ptr %7, align 8, !tbaa !3
  %17 = load ptr, ptr %8, align 8, !tbaa !3
  %18 = call ptr @Abc_ObjName(ptr noundef %17)
  %19 = call ptr @Abc_ObjAssignName(ptr noundef %16, ptr noundef %18, ptr noundef @.str)
  %20 = load ptr, ptr %9, align 8, !tbaa !3
  %21 = load ptr, ptr %8, align 8, !tbaa !3
  %22 = call ptr @Abc_ObjName(ptr noundef %21)
  %23 = call ptr @Abc_ObjAssignName(ptr noundef %20, ptr noundef %22, ptr noundef @.str.1)
  %24 = load ptr, ptr %7, align 8, !tbaa !3
  %25 = load ptr, ptr %8, align 8, !tbaa !3
  call void @Abc_ObjAddFanin(ptr noundef %24, ptr noundef %25)
  %26 = load ptr, ptr %8, align 8, !tbaa !3
  %27 = load ptr, ptr %9, align 8, !tbaa !3
  call void @Abc_ObjAddFanin(ptr noundef %26, ptr noundef %27)
  %28 = load ptr, ptr %5, align 8, !tbaa !3
  %29 = icmp ne ptr %28, null
  br i1 %29, label %30, label %33

30:                                               ; preds = %3
  %31 = load ptr, ptr %9, align 8, !tbaa !3
  %32 = load ptr, ptr %5, align 8, !tbaa !3
  call void @Abc_ObjAddFanin(ptr noundef %31, ptr noundef %32)
  br label %33

33:                                               ; preds = %30, %3
  %34 = load i32, ptr %6, align 4, !tbaa !31
  %35 = zext i32 %34 to i64
  %36 = inttoptr i64 %35 to ptr
  %37 = load ptr, ptr %8, align 8, !tbaa !3
  %38 = getelementptr inbounds nuw %struct.Abc_Obj_t_, ptr %37, i32 0, i32 6
  store ptr %36, ptr %38, align 8, !tbaa !47
  %39 = load ptr, ptr %7, align 8, !tbaa !3
  call void @llvm.lifetime.end.p0(i64 8, ptr %9) #7
  call void @llvm.lifetime.end.p0(i64 8, ptr %8) #7
  call void @llvm.lifetime.end.p0(i64 8, ptr %7) #7
  ret ptr %39
}

; Function Attrs: inlinehint nounwind uwtable
define internal ptr @Abc_NtkPi(ptr noundef %0, i32 noundef %1) #2 {
  %3 = alloca ptr, align 8
  %4 = alloca i32, align 4
  store ptr %0, ptr %3, align 8, !tbaa !33
  store i32 %1, ptr %4, align 4, !tbaa !31
  %5 = load ptr, ptr %3, align 8, !tbaa !33
  %6 = getelementptr inbounds nuw %struct.Abc_Ntk_t_, ptr %5, i32 0, i32 6
  %7 = load ptr, ptr %6, align 8, !tbaa !44
  %8 = load i32, ptr %4, align 4, !tbaa !31
  %9 = call ptr @Vec_PtrEntry(ptr noundef %7, i32 noundef %8)
  ret ptr %9
}

; Function Attrs: inlinehint nounwind uwtable
define internal ptr @Vec_PtrAlloc(i32 noundef %0) #2 {
  %2 = alloca i32, align 4
  %3 = alloca ptr, align 8
  store i32 %0, ptr %2, align 4, !tbaa !31
  call void @llvm.lifetime.start.p0(i64 8, ptr %3) #7
  %4 = call noalias ptr @malloc(i64 noundef 16) #8
  store ptr %4, ptr %3, align 8, !tbaa !37
  %5 = load i32, ptr %2, align 4, !tbaa !31
  %6 = icmp sgt i32 %5, 0
  br i1 %6, label %7, label %11

7:                                                ; preds = %1
  %8 = load i32, ptr %2, align 4, !tbaa !31
  %9 = icmp slt i32 %8, 8
  br i1 %9, label %10, label %11

10:                                               ; preds = %7
  store i32 8, ptr %2, align 4, !tbaa !31
  br label %11

11:                                               ; preds = %10, %7, %1
  %12 = load ptr, ptr %3, align 8, !tbaa !37
  %13 = getelementptr inbounds nuw %struct.Vec_Ptr_t_, ptr %12, i32 0, i32 1
  store i32 0, ptr %13, align 4, !tbaa !38
  %14 = load i32, ptr %2, align 4, !tbaa !31
  %15 = load ptr, ptr %3, align 8, !tbaa !37
  %16 = getelementptr inbounds nuw %struct.Vec_Ptr_t_, ptr %15, i32 0, i32 0
  store i32 %14, ptr %16, align 8, !tbaa !46
  %17 = load ptr, ptr %3, align 8, !tbaa !37
  %18 = getelementptr inbounds nuw %struct.Vec_Ptr_t_, ptr %17, i32 0, i32 0
  %19 = load i32, ptr %18, align 8, !tbaa !46
  %20 = icmp ne i32 %19, 0
  br i1 %20, label %21, label %28

21:                                               ; preds = %11
  %22 = load ptr, ptr %3, align 8, !tbaa !37
  %23 = getelementptr inbounds nuw %struct.Vec_Ptr_t_, ptr %22, i32 0, i32 0
  %24 = load i32, ptr %23, align 8, !tbaa !46
  %25 = sext i32 %24 to i64
  %26 = mul i64 8, %25
  %27 = call noalias ptr @malloc(i64 noundef %26) #8
  br label %29

28:                                               ; preds = %11
  br label %29

29:                                               ; preds = %28, %21
  %30 = phi ptr [ %27, %21 ], [ null, %28 ]
  %31 = load ptr, ptr %3, align 8, !tbaa !37
  %32 = getelementptr inbounds nuw %struct.Vec_Ptr_t_, ptr %31, i32 0, i32 2
  store ptr %30, ptr %32, align 8, !tbaa !28
  %33 = load ptr, ptr %3, align 8, !tbaa !37
  call void @llvm.lifetime.end.p0(i64 8, ptr %3) #7
  ret ptr %33
}

; Function Attrs: inlinehint nounwind uwtable
define internal i32 @Abc_Base10Log(i32 noundef %0) #2 {
  %2 = alloca i32, align 4
  %3 = alloca i32, align 4
  %4 = alloca i32, align 4
  %5 = alloca i32, align 4
  store i32 %0, ptr %3, align 4, !tbaa !31
  call void @llvm.lifetime.start.p0(i64 4, ptr %4) #7
  %6 = load i32, ptr %3, align 4, !tbaa !31
  %7 = icmp ult i32 %6, 2
  br i1 %7, label %8, label %10

8:                                                ; preds = %1
  %9 = load i32, ptr %3, align 4, !tbaa !31
  store i32 %9, ptr %2, align 4
  store i32 1, ptr %5, align 4
  br label %24

10:                                               ; preds = %1
  store i32 0, ptr %4, align 4, !tbaa !31
  %11 = load i32, ptr %3, align 4, !tbaa !31
  %12 = add i32 %11, -1
  store i32 %12, ptr %3, align 4, !tbaa !31
  br label %13

13:                                               ; preds = %17, %10
  %14 = load i32, ptr %3, align 4, !tbaa !31
  %15 = icmp ne i32 %14, 0
  br i1 %15, label %16, label %22

16:                                               ; preds = %13
  br label %17

17:                                               ; preds = %16
  %18 = load i32, ptr %3, align 4, !tbaa !31
  %19 = udiv i32 %18, 10
  store i32 %19, ptr %3, align 4, !tbaa !31
  %20 = load i32, ptr %4, align 4, !tbaa !31
  %21 = add nsw i32 %20, 1
  store i32 %21, ptr %4, align 4, !tbaa !31
  br label %13, !llvm.loop !45

22:                                               ; preds = %13
  %23 = load i32, ptr %4, align 4, !tbaa !31
  store i32 %23, ptr %2, align 4
  store i32 1, ptr %5, align 4
  br label %24

24:                                               ; preds = %22, %8
  call void @llvm.lifetime.end.p0(i64 4, ptr %4) #7
  %25 = load i32, ptr %2, align 4
  ret i32 %25
}

; Function Attrs: inlinehint nounwind uwtable
define internal i32 @Abc_NtkPiNum(ptr noundef %0) #2 {
  %2 = alloca ptr, align 8
  store ptr %0, ptr %2, align 8, !tbaa !33
  %3 = load ptr, ptr %2, align 8, !tbaa !33
  %4 = getelementptr inbounds nuw %struct.Abc_Ntk_t_, ptr %3, i32 0, i32 6
  %5 = load ptr, ptr %4, align 8, !tbaa !44
  %6 = call i32 @Vec_PtrSize(ptr noundef %5)
  ret i32 %6
}

; Function Attrs: nounwind uwtable
define void @Abc_NtkLatchPipe(ptr noundef %0, i32 noundef %1) #0 {
  %3 = alloca ptr, align 8
  %4 = alloca i32, align 4
  %5 = alloca ptr, align 8
  %6 = alloca ptr, align 8
  %7 = alloca ptr, align 8
  %8 = alloca ptr, align 8
  %9 = alloca i32, align 4
  %10 = alloca i32, align 4
  %11 = alloca i32, align 4
  %12 = alloca i32, align 4
  %13 = alloca i32, align 4
  store ptr %0, ptr %3, align 8, !tbaa !33
  store i32 %1, ptr %4, align 4, !tbaa !31
  call void @llvm.lifetime.start.p0(i64 8, ptr %5) #7
  call void @llvm.lifetime.start.p0(i64 8, ptr %6) #7
  call void @llvm.lifetime.start.p0(i64 8, ptr %7) #7
  call void @llvm.lifetime.start.p0(i64 8, ptr %8) #7
  call void @llvm.lifetime.start.p0(i64 4, ptr %9) #7
  call void @llvm.lifetime.start.p0(i64 4, ptr %10) #7
  call void @llvm.lifetime.start.p0(i64 4, ptr %11) #7
  call void @llvm.lifetime.start.p0(i64 4, ptr %12) #7
  %14 = load i32, ptr %4, align 4, !tbaa !31
  %15 = icmp slt i32 %14, 1
  br i1 %15, label %16, label %17

16:                                               ; preds = %2
  store i32 1, ptr %13, align 4
  br label %78

17:                                               ; preds = %2
  %18 = load i32, ptr %4, align 4, !tbaa !31
  %19 = load ptr, ptr %3, align 8, !tbaa !33
  %20 = call i32 @Abc_NtkPiNum(ptr noundef %19)
  %21 = mul nsw i32 %18, %20
  store i32 %21, ptr %11, align 4, !tbaa !31
  %22 = load i32, ptr %11, align 4, !tbaa !31
  %23 = call i32 @Abc_Base10Log(i32 noundef %22)
  store i32 %23, ptr %12, align 4, !tbaa !31
  %24 = call ptr @Vec_PtrAlloc(i32 noundef 100)
  store ptr %24, ptr %5, align 8, !tbaa !37
  store i32 0, ptr %9, align 4, !tbaa !31
  br label %25

25:                                               ; preds = %71, %17
  %26 = load i32, ptr %9, align 4, !tbaa !31
  %27 = load ptr, ptr %3, align 8, !tbaa !33
  %28 = call i32 @Abc_NtkPiNum(ptr noundef %27)
  %29 = icmp slt i32 %26, %28
  br i1 %29, label %30, label %34

30:                                               ; preds = %25
  %31 = load ptr, ptr %3, align 8, !tbaa !33
  %32 = load i32, ptr %9, align 4, !tbaa !31
  %33 = call ptr @Abc_NtkPi(ptr noundef %31, i32 noundef %32)
  store ptr %33, ptr %6, align 8, !tbaa !3
  br label %34

34:                                               ; preds = %30, %25
  %35 = phi i1 [ false, %25 ], [ true, %30 ]
  br i1 %35, label %36, label %74

36:                                               ; preds = %34
  %37 = load ptr, ptr %6, align 8, !tbaa !3
  %38 = load ptr, ptr %5, align 8, !tbaa !37
  call void @Abc_NodeCollectFanouts(ptr noundef %37, ptr noundef %38)
  %39 = load ptr, ptr %6, align 8, !tbaa !3
  store ptr %39, ptr %7, align 8, !tbaa !3
  store i32 0, ptr %10, align 4, !tbaa !31
  br label %40

40:                                               ; preds = %48, %36
  %41 = load i32, ptr %10, align 4, !tbaa !31
  %42 = load i32, ptr %4, align 4, !tbaa !31
  %43 = icmp slt i32 %41, %42
  br i1 %43, label %44, label %51

44:                                               ; preds = %40
  %45 = load ptr, ptr %3, align 8, !tbaa !33
  %46 = load ptr, ptr %7, align 8, !tbaa !3
  %47 = call ptr @Abc_NtkAddLatch(ptr noundef %45, ptr noundef %46, i32 noundef 1)
  store ptr %47, ptr %7, align 8, !tbaa !3
  br label %48

48:                                               ; preds = %44
  %49 = load i32, ptr %10, align 4, !tbaa !31
  %50 = add nsw i32 %49, 1
  store i32 %50, ptr %10, align 4, !tbaa !31
  br label %40, !llvm.loop !41

51:                                               ; preds = %40
  store i32 0, ptr %10, align 4, !tbaa !31
  br label %52

52:                                               ; preds = %67, %51
  %53 = load i32, ptr %10, align 4, !tbaa !31
  %54 = load ptr, ptr %5, align 8, !tbaa !37
  %55 = call i32 @Vec_PtrSize(ptr noundef %54)
  %56 = icmp slt i32 %53, %55
  br i1 %56, label %57, label %61

57:                                               ; preds = %52
  %58 = load ptr, ptr %5, align 8, !tbaa !37
  %59 = load i32, ptr %10, align 4, !tbaa !31
  %60 = call ptr @Vec_PtrEntry(ptr noundef %58, i32 noundef %59)
  store ptr %60, ptr %8, align 8, !tbaa !3
  br label %61

61:                                               ; preds = %57, %52
  %62 = phi i1 [ false, %52 ], [ true, %57 ]
  br i1 %62, label %63, label %70

63:                                               ; preds = %61
  %64 = load ptr, ptr %8, align 8, !tbaa !3
  %65 = load ptr, ptr %6, align 8, !tbaa !3
  %66 = load ptr, ptr %7, align 8, !tbaa !3
  call void @Abc_ObjPatchFanin(ptr noundef %64, ptr noundef %65, ptr noundef %66)
  br label %67

67:                                               ; preds = %63
  %68 = load i32, ptr %10, align 4, !tbaa !31
  %69 = add nsw i32 %68, 1
  store i32 %69, ptr %10, align 4, !tbaa !31
  br label %52, !llvm.loop !42

70:                                               ; preds = %61
  br label %71

71:                                               ; preds = %70
  %72 = load i32, ptr %9, align 4, !tbaa !31
  %73 = add nsw i32 %72, 1
  store i32 %73, ptr %9, align 4, !tbaa !31
  br label %25, !llvm.loop !43

74:                                               ; preds = %34
  %75 = load ptr, ptr %5, align 8, !tbaa !37
  call void @Vec_PtrFree(ptr noundef %75)
  %76 = load ptr, ptr %3, align 8, !tbaa !33
  %77 = call i32 @Abc_NtkLogicMakeSimpleCos(ptr noundef %76, i32 noundef 0)
  store i32 0, ptr %13, align 4
  br label %78

78:                                               ; preds = %74, %16
  call void @llvm.lifetime.end.p0(i64 4, ptr %12) #7
  call void @llvm.lifetime.end.p0(i64 4, ptr %11) #7
  call void @llvm.lifetime.end.p0(i64 4, ptr %10) #7
  call void @llvm.lifetime.end.p0(i64 4, ptr %9) #7
  call void @llvm.lifetime.end.p0(i64 8, ptr %8) #7
  call void @llvm.lifetime.end.p0(i64 8, ptr %7) #7
  call void @llvm.lifetime.end.p0(i64 8, ptr %6) #7
  call void @llvm.lifetime.end.p0(i64 8, ptr %5) #7
  %79 = load i32, ptr %13, align 4
  switch i32 %79, label %81 [
    i32 0, label %80
    i32 1, label %80
  ]

80:                                               ; preds = %78, %78
  ret void

81:                                               ; preds = %78
  unreachable
}