; Function Attrs: nounwind uwtable
define void @Abc_NtkLatchPipe(ptr noundef %0, i32 noundef %1) local_unnamed_addr #2 {
  %3 = icmp slt i32 %1, 1
  br i1 %3, label %36, label %Abc_Base10Log.exit

Abc_Base10Log.exit:                               ; preds = %2
  %4 = getelementptr i8, ptr %0, i64 40
  %.val32 = load ptr, ptr %4, align 8, !tbaa !38
  %5 = getelementptr i8, ptr %.val32, i64 4
  %.val32.val = load i32, ptr %5, align 4, !tbaa !33
  %6 = tail call noalias dereferenceable_or_null(16) ptr @malloc(i64 noundef 16) #13
  %7 = getelementptr inbounds nuw i8, ptr %6, i64 4
  store i32 0, ptr %7, align 4, !tbaa !33
  store i32 100, ptr %6, align 8, !tbaa !39
  %8 = tail call noalias dereferenceable_or_null(800) ptr @malloc(i64 noundef 800) #13
  %9 = getelementptr inbounds nuw i8, ptr %6, i64 8
  store ptr %8, ptr %9, align 8, !tbaa !29
  %10 = icmp sgt i32 %.val32.val, 0
  br i1 %10, label %.lr.ph.us, label %.critedge

.lr.ph.us:                                        ; preds = %Abc_Base10Log.exit, %.critedge2.us
  %indvars.iv49 = phi i64 [ %indvars.iv.next50, %.critedge2.us ], [ 0, %Abc_Base10Log.exit ]
  %.val3345.us = phi ptr [ %.val33.us, %.critedge2.us ], [ %.val32, %Abc_Base10Log.exit ]
  %11 = getelementptr i8, ptr %.val3345.us, i64 8
  %.val34.val.us = load ptr, ptr %11, align 8, !tbaa !29
  %12 = getelementptr inbounds nuw ptr, ptr %.val34.val.us, i64 %indvars.iv49
  %13 = load ptr, ptr %12, align 8, !tbaa !31
  tail call void @Abc_NodeCollectFanouts(ptr noundef %13, ptr noundef nonnull %6) #12
  br label %21

.critedge2.us:                                    ; preds = %.lr.ph41.us, %..preheader_crit_edge.us
  %indvars.iv.next50 = add nuw nsw i64 %indvars.iv49, 1
  %.val33.us = load ptr, ptr %4, align 8, !tbaa !38
  %14 = getelementptr i8, ptr %.val33.us, i64 4
  %.val33.val.us = load i32, ptr %14, align 4, !tbaa !33
  %15 = sext i32 %.val33.val.us to i64
  %16 = icmp slt i64 %indvars.iv.next50, %15
  br i1 %16, label %.lr.ph.us, label %.critedge.loopexit, !llvm.loop !40

.lr.ph41.us:                                      ; preds = %..preheader_crit_edge.us, %.lr.ph41.us
  %indvars.iv = phi i64 [ %indvars.iv.next, %.lr.ph41.us ], [ 0, %..preheader_crit_edge.us ]
  %.val31.us = load ptr, ptr %9, align 8, !tbaa !29
  %17 = getelementptr inbounds nuw ptr, ptr %.val31.us, i64 %indvars.iv
  %18 = load ptr, ptr %17, align 8, !tbaa !31
  tail call void @Abc_ObjPatchFanin(ptr noundef %18, ptr noundef %13, ptr noundef %22) #12
  %indvars.iv.next = add nuw nsw i64 %indvars.iv, 1
  %.val.us = load i32, ptr %7, align 4, !tbaa !33
  %19 = sext i32 %.val.us to i64
  %20 = icmp slt i64 %indvars.iv.next, %19
  br i1 %20, label %.lr.ph41.us, label %.critedge2.us, !llvm.loop !41

21:                                               ; preds = %.lr.ph.us, %Abc_NtkAddLatch.exit.us
  %.038.us = phi ptr [ %13, %.lr.ph.us ], [ %22, %Abc_NtkAddLatch.exit.us ]
  %.02937.us = phi i32 [ 0, %.lr.ph.us ], [ %31, %Abc_NtkAddLatch.exit.us ]
  %22 = tail call ptr @Abc_NtkCreateObj(ptr noundef %0, i32 noundef 5) #12
  %23 = tail call ptr @Abc_NtkCreateObj(ptr noundef %0, i32 noundef 8) #12
  %24 = tail call ptr @Abc_NtkCreateObj(ptr noundef %0, i32 noundef 4) #12
  %25 = tail call ptr @Abc_ObjName(ptr noundef %23) #12
  %26 = tail call ptr @Abc_ObjAssignName(ptr noundef %22, ptr noundef %25, ptr noundef nonnull @.str) #12
  %27 = tail call ptr @Abc_ObjName(ptr noundef %23) #12
  %28 = tail call ptr @Abc_ObjAssignName(ptr noundef %24, ptr noundef %27, ptr noundef nonnull @.str.1) #12
  tail call void @Abc_ObjAddFanin(ptr noundef %22, ptr noundef %23) #12
  tail call void @Abc_ObjAddFanin(ptr noundef %23, ptr noundef %24) #12
  %.not.i35.us = icmp eq ptr %.038.us, null
  br i1 %.not.i35.us, label %Abc_NtkAddLatch.exit.us, label %29

29:                                               ; preds = %21
  tail call void @Abc_ObjAddFanin(ptr noundef %24, ptr noundef nonnull %.038.us) #12
  br label %Abc_NtkAddLatch.exit.us

Abc_NtkAddLatch.exit.us:                          ; preds = %29, %21
  %30 = getelementptr inbounds nuw i8, ptr %23, i64 56
  store ptr inttoptr (i64 1 to ptr), ptr %30, align 8, !tbaa !42
  %31 = add nuw nsw i32 %.02937.us, 1
  %exitcond.not = icmp eq i32 %31, %1
  br i1 %exitcond.not, label %..preheader_crit_edge.us, label %21, !llvm.loop !43

..preheader_crit_edge.us:                         ; preds = %Abc_NtkAddLatch.exit.us
  %.val39.us = load i32, ptr %7, align 4, !tbaa !33
  %32 = icmp sgt i32 %.val39.us, 0
  br i1 %32, label %.lr.ph41.us, label %.critedge2.us

.critedge.loopexit:                               ; preds = %.critedge2.us
  %.pre = load ptr, ptr %9, align 8, !tbaa !29
  br label %.critedge

.critedge:                                        ; preds = %.critedge.loopexit, %Abc_Base10Log.exit
  %33 = phi ptr [ %.pre, %.critedge.loopexit ], [ %8, %Abc_Base10Log.exit ]
  %.not.i36 = icmp eq ptr %33, null
  br i1 %.not.i36, label %Vec_PtrFree.exit, label %34

34:                                               ; preds = %.critedge
  tail call void @free(ptr noundef nonnull %33) #12
  br label %Vec_PtrFree.exit

Vec_PtrFree.exit:                                 ; preds = %.critedge, %34
  tail call void @free(ptr noundef nonnull %6) #12
  %35 = tail call i32 @Abc_NtkLogicMakeSimpleCos(ptr noundef nonnull %0, i32 noundef 0) #12
  br label %36

36:                                               ; preds = %2, %Vec_PtrFree.exit
  ret void
}